; ModuleID = '20/256.c'
source_filename = "20/256.c"
target datalayout = "e-m:e-p270:32:32-p271:32:32-p272:64:64-i64:64-f80:128-n8:16:32:64-S128"
target triple = "x86_64-pc-linux-gnu"

@.str = private unnamed_addr constant [4 x i8] c"%s\0A\00", align 1

; Function Attrs: noinline nounwind uwtable
define dso_local void @main() #0 {
  %1 = alloca [3 x i8], align 1
  %2 = alloca [1000 x [15 x i8]], align 16
  %3 = alloca i8, align 1
  %4 = alloca i32, align 4
  %5 = alloca i32, align 4
  %6 = alloca i32, align 4
  %7 = alloca i32, align 4
  %8 = alloca [1000 x i32], align 16
  store i32 0, i32* %7, align 4
  store i32 0, i32* %4, align 4
  br label %9

9:                                                ; preds = %39, %0
  %10 = load i32, i32* %4, align 4
  %11 = icmp slt i32 %10, 1000
  br i1 %11, label %12, label %42

12:                                               ; preds = %9
  %13 = load i32, i32* %4, align 4
  %14 = sext i32 %13 to i64
  %15 = getelementptr inbounds [1000 x [15 x i8]], [1000 x [15 x i8]]* %2, i64 0, i64 %14
  %16 = getelementptr inbounds [15 x i8], [15 x i8]* %15, i64 0, i64 0
  %17 = call i32 (i8*, ...) bitcast (i32 (...)* @gets to i32 (i8*, ...)*)(i8* %16)
  %18 = load i32, i32* %4, align 4
  %19 = sext i32 %18 to i64
  %20 = getelementptr inbounds [1000 x [15 x i8]], [1000 x [15 x i8]]* %2, i64 0, i64 %19
  %21 = getelementptr inbounds [15 x i8], [15 x i8]* %20, i64 0, i64 0
  %22 = load i8, i8* %21, align 1
  %23 = sext i8 %22 to i32
  %24 = icmp ne i32 %23, 0
  br i1 %24, label %25, label %37

25:                                               ; preds = %12
  %26 = load i32, i32* %4, align 4
  %27 = sext i32 %26 to i64
  %28 = getelementptr inbounds [1000 x [15 x i8]], [1000 x [15 x i8]]* %2, i64 0, i64 %27
  %29 = getelementptr inbounds [15 x i8], [15 x i8]* %28, i64 0, i64 0
  %30 = call i64 @strlen(i8* %29) #3
  %31 = trunc i64 %30 to i32
  %32 = load i32, i32* %4, align 4
  %33 = sext i32 %32 to i64
  %34 = getelementptr inbounds [1000 x i32], [1000 x i32]* %8, i64 0, i64 %33
  store i32 %31, i32* %34, align 4
  %35 = load i32, i32* %7, align 4
  %36 = add nsw i32 %35, 1
  store i32 %36, i32* %7, align 4
  br label %38

37:                                               ; preds = %12
  br label %42

38:                                               ; preds = %25
  br label %39

39:                                               ; preds = %38
  %40 = load i32, i32* %4, align 4
  %41 = add nsw i32 %40, 1
  store i32 %41, i32* %4, align 4
  br label %9

42:                                               ; preds = %37, %9
  store i32 0, i32* %4, align 4
  br label %43

43:                                               ; preds = %214, %42
  %44 = load i32, i32* %4, align 4
  %45 = load i32, i32* %7, align 4
  %46 = icmp slt i32 %44, %45
  br i1 %46, label %47, label %217

47:                                               ; preds = %43
  %48 = load i32, i32* %4, align 4
  %49 = sext i32 %48 to i64
  %50 = getelementptr inbounds [1000 x [15 x i8]], [1000 x [15 x i8]]* %2, i64 0, i64 %49
  %51 = getelementptr inbounds [15 x i8], [15 x i8]* %50, i64 0, i64 0
  %52 = load i8, i8* %51, align 1
  store i8 %52, i8* %3, align 1
  %53 = load i32, i32* %4, align 4
  %54 = sext i32 %53 to i64
  %55 = getelementptr inbounds [1000 x [15 x i8]], [1000 x [15 x i8]]* %2, i64 0, i64 %54
  %56 = load i32, i32* %4, align 4
  %57 = sext i32 %56 to i64
  %58 = getelementptr inbounds [1000 x i32], [1000 x i32]* %8, i64 0, i64 %57
  %59 = load i32, i32* %58, align 4
  %60 = sub nsw i32 %59, 3
  %61 = sext i32 %60 to i64
  %62 = getelementptr inbounds [15 x i8], [15 x i8]* %55, i64 0, i64 %61
  %63 = load i8, i8* %62, align 1
  %64 = getelementptr inbounds [3 x i8], [3 x i8]* %1, i64 0, i64 1
  store i8 %63, i8* %64, align 1
  %65 = load i32, i32* %4, align 4
  %66 = sext i32 %65 to i64
  %67 = getelementptr inbounds [1000 x [15 x i8]], [1000 x [15 x i8]]* %2, i64 0, i64 %66
  %68 = load i32, i32* %4, align 4
  %69 = sext i32 %68 to i64
  %70 = getelementptr inbounds [1000 x i32], [1000 x i32]* %8, i64 0, i64 %69
  %71 = load i32, i32* %70, align 4
  %72 = sub nsw i32 %71, 2
  %73 = sext i32 %72 to i64
  %74 = getelementptr inbounds [15 x i8], [15 x i8]* %67, i64 0, i64 %73
  %75 = load i8, i8* %74, align 1
  %76 = getelementptr inbounds [3 x i8], [3 x i8]* %1, i64 0, i64 2
  store i8 %75, i8* %76, align 1
  %77 = load i32, i32* %4, align 4
  %78 = sext i32 %77 to i64
  %79 = getelementptr inbounds [1000 x [15 x i8]], [1000 x [15 x i8]]* %2, i64 0, i64 %78
  %80 = load i32, i32* %4, align 4
  %81 = sext i32 %80 to i64
  %82 = getelementptr inbounds [1000 x i32], [1000 x i32]* %8, i64 0, i64 %81
  %83 = load i32, i32* %82, align 4
  %84 = sub nsw i32 %83, 1
  %85 = sext i32 %84 to i64
  %86 = getelementptr inbounds [15 x i8], [15 x i8]* %79, i64 0, i64 %85
  %87 = load i8, i8* %86, align 1
  %88 = getelementptr inbounds [3 x i8], [3 x i8]* %1, i64 0, i64 3
  store i8 %87, i8* %88, align 1
  store i32 0, i32* %5, align 4
  br label %89

89:                                               ; preds = %118, %47
  %90 = load i32, i32* %5, align 4
  %91 = load i32, i32* %4, align 4
  %92 = sext i32 %91 to i64
  %93 = getelementptr inbounds [1000 x i32], [1000 x i32]* %8, i64 0, i64 %92
  %94 = load i32, i32* %93, align 4
  %95 = sub nsw i32 %94, 4
  %96 = icmp slt i32 %90, %95
  br i1 %96, label %97, label %121

97:                                               ; preds = %89
  %98 = load i8, i8* %3, align 1
  %99 = sext i8 %98 to i32
  %100 = load i32, i32* %4, align 4
  %101 = sext i32 %100 to i64
  %102 = getelementptr inbounds [1000 x [15 x i8]], [1000 x [15 x i8]]* %2, i64 0, i64 %101
  %103 = load i32, i32* %5, align 4
  %104 = sext i32 %103 to i64
  %105 = getelementptr inbounds [15 x i8], [15 x i8]* %102, i64 0, i64 %104
  %106 = load i8, i8* %105, align 1
  %107 = sext i8 %106 to i32
  %108 = icmp slt i32 %99, %107
  br i1 %108, label %109, label %117

109:                                              ; preds = %97
  %110 = load i32, i32* %4, align 4
  %111 = sext i32 %110 to i64
  %112 = getelementptr inbounds [1000 x [15 x i8]], [1000 x [15 x i8]]* %2, i64 0, i64 %111
  %113 = load i32, i32* %5, align 4
  %114 = sext i32 %113 to i64
  %115 = getelementptr inbounds [15 x i8], [15 x i8]* %112, i64 0, i64 %114
  %116 = load i8, i8* %115, align 1
  store i8 %116, i8* %3, align 1
  br label %117

117:                                              ; preds = %109, %97
  br label %118

118:                                              ; preds = %117
  %119 = load i32, i32* %5, align 4
  %120 = add nsw i32 %119, 1
  store i32 %120, i32* %5, align 4
  br label %89

121:                                              ; preds = %89
  store i32 0, i32* %5, align 4
  br label %122

122:                                              ; preds = %210, %121
  %123 = load i32, i32* %5, align 4
  %124 = load i32, i32* %4, align 4
  %125 = sext i32 %124 to i64
  %126 = getelementptr inbounds [1000 x i32], [1000 x i32]* %8, i64 0, i64 %125
  %127 = load i32, i32* %126, align 4
  %128 = sub nsw i32 %127, 4
  %129 = icmp slt i32 %123, %128
  br i1 %129, label %130, label %213

130:                                              ; preds = %122
  %131 = load i8, i8* %3, align 1
  %132 = sext i8 %131 to i32
  %133 = load i32, i32* %4, align 4
  %134 = sext i32 %133 to i64
  %135 = getelementptr inbounds [1000 x [15 x i8]], [1000 x [15 x i8]]* %2, i64 0, i64 %134
  %136 = load i32, i32* %5, align 4
  %137 = sext i32 %136 to i64
  %138 = getelementptr inbounds [15 x i8], [15 x i8]* %135, i64 0, i64 %137
  %139 = load i8, i8* %138, align 1
  %140 = sext i8 %139 to i32
  %141 = icmp eq i32 %132, %140
  br i1 %141, label %142, label %209

142:                                              ; preds = %130
  %143 = load i32, i32* %4, align 4
  %144 = sext i32 %143 to i64
  %145 = getelementptr inbounds [1000 x i32], [1000 x i32]* %8, i64 0, i64 %144
  %146 = load i32, i32* %145, align 4
  %147 = sub nsw i32 %146, 1
  store i32 %147, i32* %6, align 4
  br label %148

148:                                              ; preds = %168, %142
  %149 = load i32, i32* %6, align 4
  %150 = load i32, i32* %5, align 4
  %151 = add nsw i32 %150, 4
  %152 = icmp sge i32 %149, %151
  br i1 %152, label %153, label %171

153:                                              ; preds = %148
  %154 = load i32, i32* %4, align 4
  %155 = sext i32 %154 to i64
  %156 = getelementptr inbounds [1000 x [15 x i8]], [1000 x [15 x i8]]* %2, i64 0, i64 %155
  %157 = load i32, i32* %6, align 4
  %158 = sub nsw i32 %157, 3
  %159 = sext i32 %158 to i64
  %160 = getelementptr inbounds [15 x i8], [15 x i8]* %156, i64 0, i64 %159
  %161 = load i8, i8* %160, align 1
  %162 = load i32, i32* %4, align 4
  %163 = sext i32 %162 to i64
  %164 = getelementptr inbounds [1000 x [15 x i8]], [1000 x [15 x i8]]* %2, i64 0, i64 %163
  %165 = load i32, i32* %6, align 4
  %166 = sext i32 %165 to i64
  %167 = getelementptr inbounds [15 x i8], [15 x i8]* %164, i64 0, i64 %166
  store i8 %161, i8* %167, align 1
  br label %168

168:                                              ; preds = %153
  %169 = load i32, i32* %6, align 4
  %170 = add nsw i32 %169, -1
  store i32 %170, i32* %6, align 4
  br label %148

171:                                              ; preds = %148
  %172 = load i32, i32* %4, align 4
  %173 = sext i32 %172 to i64
  %174 = getelementptr inbounds [1000 x [15 x i8]], [1000 x [15 x i8]]* %2, i64 0, i64 %173
  %175 = load i32, i32* %4, align 4
  %176 = sext i32 %175 to i64
  %177 = getelementptr inbounds [1000 x i32], [1000 x i32]* %8, i64 0, i64 %176
  %178 = load i32, i32* %177, align 4
  %179 = sub nsw i32 %178, 1
  %180 = sext i32 %179 to i64
  %181 = getelementptr inbounds [15 x i8], [15 x i8]* %174, i64 0, i64 %180
  store i8 0, i8* %181, align 1
  %182 = getelementptr inbounds [3 x i8], [3 x i8]* %1, i64 0, i64 1
  %183 = load i8, i8* %182, align 1
  %184 = load i32, i32* %4, align 4
  %185 = sext i32 %184 to i64
  %186 = getelementptr inbounds [1000 x [15 x i8]], [1000 x [15 x i8]]* %2, i64 0, i64 %185
  %187 = load i32, i32* %5, align 4
  %188 = add nsw i32 %187, 1
  %189 = sext i32 %188 to i64
  %190 = getelementptr inbounds [15 x i8], [15 x i8]* %186, i64 0, i64 %189
  store i8 %183, i8* %190, align 1
  %191 = getelementptr inbounds [3 x i8], [3 x i8]* %1, i64 0, i64 2
  %192 = load i8, i8* %191, align 1
  %193 = load i32, i32* %4, align 4
  %194 = sext i32 %193 to i64
  %195 = getelementptr inbounds [1000 x [15 x i8]], [1000 x [15 x i8]]* %2, i64 0, i64 %194
  %196 = load i32, i32* %5, align 4
  %197 = add nsw i32 %196, 2
  %198 = sext i32 %197 to i64
  %199 = getelementptr inbounds [15 x i8], [15 x i8]* %195, i64 0, i64 %198
  store i8 %192, i8* %199, align 1
  %200 = getelementptr inbounds [3 x i8], [3 x i8]* %1, i64 0, i64 3
  %201 = load i8, i8* %200, align 1
  %202 = load i32, i32* %4, align 4
  %203 = sext i32 %202 to i64
  %204 = getelementptr inbounds [1000 x [15 x i8]], [1000 x [15 x i8]]* %2, i64 0, i64 %203
  %205 = load i32, i32* %5, align 4
  %206 = add nsw i32 %205, 3
  %207 = sext i32 %206 to i64
  %208 = getelementptr inbounds [15 x i8], [15 x i8]* %204, i64 0, i64 %207
  store i8 %201, i8* %208, align 1
  br label %213

209:                                              ; preds = %130
  br label %210

210:                                              ; preds = %209
  %211 = load i32, i32* %5, align 4
  %212 = add nsw i32 %211, 1
  store i32 %212, i32* %5, align 4
  br label %122

213:                                              ; preds = %171, %122
  br label %214

214:                                              ; preds = %213
  %215 = load i32, i32* %4, align 4
  %216 = add nsw i32 %215, 1
  store i32 %216, i32* %4, align 4
  br label %43

217:                                              ; preds = %43
  store i32 0, i32* %4, align 4
  br label %218

218:                                              ; preds = %228, %217
  %219 = load i32, i32* %4, align 4
  %220 = load i32, i32* %7, align 4
  %221 = icmp slt i32 %219, %220
  br i1 %221, label %222, label %231

222:                                              ; preds = %218
  %223 = load i32, i32* %4, align 4
  %224 = sext i32 %223 to i64
  %225 = getelementptr inbounds [1000 x [15 x i8]], [1000 x [15 x i8]]* %2, i64 0, i64 %224
  %226 = getelementptr inbounds [15 x i8], [15 x i8]* %225, i64 0, i64 0
  %227 = call i32 (i8*, ...) @printf(i8* getelementptr inbounds ([4 x i8], [4 x i8]* @.str, i64 0, i64 0), i8* %226)
  br label %228

228:                                              ; preds = %222
  %229 = load i32, i32* %4, align 4
  %230 = add nsw i32 %229, 1
  store i32 %230, i32* %4, align 4
  br label %218

231:                                              ; preds = %218
  ret void
}

declare dso_local i32 @gets(...) #1

; Function Attrs: nounwind readonly
declare dso_local i64 @strlen(i8*) #2

declare dso_local i32 @printf(i8*, ...) #1


!llvm.module.flags = !{!0}
!llvm.ident = !{!1}

!0 = !{i32 1, !"wchar_size", i32 4}
!1 = !{!"clang version 10.0.0-4ubuntu1 "}
